target datalayout = "e-m:e-p270:32:32-p271:32:32-p272:64:64-i64:64-i128:128-f80:128-n8:16:32:64-S128"
target triple = "x86_64-pc-linux-gnu"

%struct.H5WB_t = type { ptr, i64, ptr, i64, i64 }

@H5_H5WB_t_reg_free_list = internal global { i8, [3 x i8], i32, i32, [4 x i8], ptr, i64, ptr } { i8 0, [3 x i8] zeroinitializer, i32 0, i32 0, [4 x i8] zeroinitializer, ptr @.str.3, i64 40, ptr null }, align 8
@H5_extra_buf_blk_free_list = internal global { i8, [3 x i8], i32, i32, [4 x i8], i64, ptr, ptr } { i8 0, [3 x i8] zeroinitializer, i32 0, i32 0, [4 x i8] zeroinitializer, i64 0, ptr @.str.5, ptr null }, align 8

; Function Attrs: nounwind uwtable
define i32 @H5WB_unwrap(ptr noundef %0) #0 {
  %2 = alloca ptr, align 8
  store ptr %0, ptr %2, align 8, !tbaa !9
  %3 = load ptr, ptr %2, align 8, !tbaa !9
  %4 = getelementptr inbounds nuw %struct.H5WB_t, ptr %3, i32 0, i32 2
  %5 = load ptr, ptr %4, align 8, !tbaa !18
  %6 = icmp ne ptr %5, null
  br i1 %6, label %7, label %22

7:                                                ; preds = %1
  %8 = load ptr, ptr %2, align 8, !tbaa !9
  %9 = getelementptr inbounds nuw %struct.H5WB_t, ptr %8, i32 0, i32 2
  %10 = load ptr, ptr %9, align 8, !tbaa !18
  %11 = load ptr, ptr %2, align 8, !tbaa !9
  %12 = getelementptr inbounds nuw %struct.H5WB_t, ptr %11, i32 0, i32 0
  %13 = load ptr, ptr %12, align 8, !tbaa !15
  %14 = icmp ne ptr %10, %13
  br i1 %14, label %15, label %22

15:                                               ; preds = %7
  %16 = load ptr, ptr %2, align 8, !tbaa !9
  %17 = getelementptr inbounds nuw %struct.H5WB_t, ptr %16, i32 0, i32 2
  %18 = load ptr, ptr %17, align 8, !tbaa !18
  %19 = call ptr @H5FL_blk_free(ptr noundef @H5_extra_buf_blk_free_list, ptr noundef %18)
  %20 = load ptr, ptr %2, align 8, !tbaa !9
  %21 = getelementptr inbounds nuw %struct.H5WB_t, ptr %20, i32 0, i32 2
  store ptr %19, ptr %21, align 8, !tbaa !18
  br label %22

22:                                               ; preds = %15, %7, %1
  %23 = load ptr, ptr %2, align 8, !tbaa !9
  %24 = call ptr @H5FL_reg_free(ptr noundef @H5_H5WB_t_reg_free_list, ptr noundef %23)
  store ptr %24, ptr %2, align 8, !tbaa !9
  ret i32 0
}