; Function Attrs: nounwind uwtable
define noundef i32 @H5WB_unwrap(ptr noundef %0) local_unnamed_addr #0 {
  %2 = getelementptr inbounds nuw i8, ptr %0, i64 16
  %3 = load ptr, ptr %2, align 8, !tbaa !11
  %.not = icmp eq ptr %3, null
  br i1 %.not, label %8, label %4

4:                                                ; preds = %1
  %5 = load ptr, ptr %0, align 8, !tbaa !7
  %.not6 = icmp eq ptr %3, %5
  br i1 %.not6, label %8, label %6

6:                                                ; preds = %4
  %7 = tail call ptr @H5FL_blk_free(ptr noundef nonnull @H5_extra_buf_blk_free_list, ptr noundef nonnull %3) #3
  store ptr %7, ptr %2, align 8, !tbaa !11
  br label %8

8:                                                ; preds = %6, %4, %1
  %9 = tail call ptr @H5FL_reg_free(ptr noundef nonnull @H5_H5WB_t_reg_free_list, ptr noundef nonnull %0) #3
  ret i32 0
}